; Function Attrs: nounwind uwtable
define void @Fra_CollectSuper_rec(ptr noundef %0, ptr noundef %1, i32 noundef %2, i32 noundef %3) local_unnamed_addr #0 {
  %5 = ptrtoint ptr %0 to i64
  %6 = and i64 %5, 1
  %.not3050 = icmp eq i64 %6, 0
  br i1 %.not3050, label %.lr.ph.preheader, label %tailrecurse.outer._crit_edge

.lr.ph.preheader:                                 ; preds = %4
  %7 = icmp eq i32 %2, 0
  br label %.lr.ph

.lr.ph:                                           ; preds = %.lr.ph.preheader, %.split.split.us
  %.tr28.ph53 = phi i32 [ 0, %.split.split.us ], [ %3, %.lr.ph.preheader ]
  %.tr27.ph52 = phi i1 [ true, %.split.split.us ], [ %7, %.lr.ph.preheader ]
  %.tr.ph51 = phi ptr [ %.val22, %.split.split.us ], [ %0, %.lr.ph.preheader ]
  %.not16 = icmp eq i32 %.tr28.ph53, 0
  br i1 %.not16, label %.lr.ph.split.us, label %.lr.ph.split

.lr.ph.split.us:                                  ; preds = %.lr.ph
  %8 = getelementptr i8, ptr %.tr.ph51, i64 24
  %.val.us = load i64, ptr %8, align 8
  %9 = and i64 %.val.us, 7
  %.not25.us = icmp eq i64 %9, 2
  br i1 %.not25.us, label %tailrecurse.outer._crit_edge, label %10

10:                                               ; preds = %.lr.ph.split.us
  %11 = and i64 %.val.us, 4294967168
  %12 = icmp ne i64 %11, 0
  %or.cond.us = and i1 %.tr27.ph52, %12
  br i1 %or.cond.us, label %tailrecurse.outer._crit_edge, label %.split.split.us

.split.split.us:                                  ; preds = %10
  %13 = getelementptr i8, ptr %.tr.ph51, i64 8
  %.val20 = load ptr, ptr %13, align 8, !tbaa !35
  tail call void @Fra_CollectSuper_rec(ptr noundef %.val20, ptr noundef %1, i32 noundef 0, i32 noundef 0)
  %14 = getelementptr i8, ptr %.tr.ph51, i64 16
  %.val22 = load ptr, ptr %14, align 8, !tbaa !36
  %15 = ptrtoint ptr %.val22 to i64
  %16 = and i64 %15, 1
  %.not30 = icmp eq i64 %16, 0
  br i1 %.not30, label %.lr.ph, label %tailrecurse.outer._crit_edge

.lr.ph.split:                                     ; preds = %.lr.ph, %.split13
  %.tr2732 = phi i1 [ true, %.split13 ], [ %.tr27.ph52, %.lr.ph ]
  %.tr31 = phi ptr [ %.val21, %.split13 ], [ %.tr.ph51, %.lr.ph ]
  %17 = getelementptr i8, ptr %.tr31, i64 24
  %.val = load i64, ptr %17, align 8
  %18 = and i64 %.val, 7
  %.not25 = icmp eq i64 %18, 2
  br i1 %.not25, label %tailrecurse.outer._crit_edge, label %19

19:                                               ; preds = %.lr.ph.split
  %20 = and i64 %.val, 4294967168
  %21 = icmp ne i64 %20, 0
  %or.cond = and i1 %.tr2732, %21
  br i1 %or.cond, label %tailrecurse.outer._crit_edge, label %22

22:                                               ; preds = %19
  %23 = tail call i32 @Aig_ObjIsMuxType(ptr noundef nonnull %.tr31) #7
  %.not17 = icmp eq i32 %23, 0
  br i1 %.not17, label %.split13, label %tailrecurse.outer._crit_edge

.split13:                                         ; preds = %22
  %24 = getelementptr i8, ptr %.tr31, i64 8
  %.val19 = load ptr, ptr %24, align 8, !tbaa !35
  tail call void @Fra_CollectSuper_rec(ptr noundef %.val19, ptr noundef %1, i32 noundef 0, i32 noundef %.tr28.ph53)
  %25 = getelementptr i8, ptr %.tr31, i64 16
  %.val21 = load ptr, ptr %25, align 8, !tbaa !36
  %26 = ptrtoint ptr %.val21 to i64
  %27 = and i64 %26, 1
  %.not = icmp eq i64 %27, 0
  br i1 %.not, label %.lr.ph.split, label %tailrecurse.outer._crit_edge

tailrecurse.outer._crit_edge:                     ; preds = %.lr.ph.split.us, %10, %.split.split.us, %.split13, %.lr.ph.split, %22, %19, %4
  %.tr.lcssa = phi ptr [ %0, %4 ], [ %.tr31, %19 ], [ %.tr31, %22 ], [ %.tr31, %.lr.ph.split ], [ %.val21, %.split13 ], [ %.val22, %.split.split.us ], [ %.tr.ph51, %10 ], [ %.tr.ph51, %.lr.ph.split.us ]
  %28 = getelementptr inbounds nuw i8, ptr %1, i64 4
  %29 = load i32, ptr %28, align 4, !tbaa !28
  %30 = icmp sgt i32 %29, 0
  br i1 %30, label %.lr.ph.i, label %._crit_edge.i

.lr.ph.i:                                         ; preds = %tailrecurse.outer._crit_edge
  %31 = getelementptr inbounds nuw i8, ptr %1, i64 8
  %32 = load ptr, ptr %31, align 8, !tbaa !30
  %wide.trip.count.i = zext nneg i32 %29 to i64
  br label %34

33:                                               ; preds = %34
  %indvars.iv.next.i = add nuw nsw i64 %indvars.iv.i, 1
  %exitcond.not.i = icmp eq i64 %indvars.iv.next.i, %wide.trip.count.i
  br i1 %exitcond.not.i, label %._crit_edge.i, label %34, !llvm.loop !37

34:                                               ; preds = %33, %.lr.ph.i
  %indvars.iv.i = phi i64 [ 0, %.lr.ph.i ], [ %indvars.iv.next.i, %33 ]
  %35 = getelementptr inbounds nuw ptr, ptr %32, i64 %indvars.iv.i
  %36 = load ptr, ptr %35, align 8, !tbaa !31
  %37 = icmp eq ptr %36, %.tr.lcssa
  br i1 %37, label %Vec_PtrPushUnique.exit, label %33

._crit_edge.i:                                    ; preds = %33, %tailrecurse.outer._crit_edge
  %38 = load i32, ptr %1, align 8, !tbaa !38
  %39 = icmp eq i32 %29, %38
  br i1 %39, label %40, label %.Vec_PtrGrow.exit11_crit_edge.i.i

.Vec_PtrGrow.exit11_crit_edge.i.i:                ; preds = %._crit_edge.i
  %.phi.trans.insert.i.i = getelementptr inbounds nuw i8, ptr %1, i64 8
  %.pre.i.i = load ptr, ptr %.phi.trans.insert.i.i, align 8, !tbaa !30
  br label %Vec_PtrPush.exit.i

40:                                               ; preds = %._crit_edge.i
  %41 = icmp slt i32 %29, 16
  br i1 %41, label %42, label %50

42:                                               ; preds = %40
  %43 = getelementptr inbounds nuw i8, ptr %1, i64 8
  %44 = load ptr, ptr %43, align 8, !tbaa !30
  %.not9.i.i.i = icmp eq ptr %44, null
  br i1 %.not9.i.i.i, label %47, label %45

45:                                               ; preds = %42
  %46 = tail call dereferenceable_or_null(128) ptr @realloc(ptr noundef nonnull %44, i64 noundef 128) #9
  br label %Vec_PtrGrow.exit.i.i

47:                                               ; preds = %42
  %48 = tail call noalias dereferenceable_or_null(128) ptr @malloc(i64 noundef 128) #8
  br label %Vec_PtrGrow.exit.i.i

Vec_PtrGrow.exit.i.i:                             ; preds = %47, %45
  %49 = phi ptr [ %46, %45 ], [ %48, %47 ]
  store ptr %49, ptr %43, align 8, !tbaa !30
  store i32 16, ptr %1, align 8, !tbaa !38
  br label %Vec_PtrPush.exit.i

50:                                               ; preds = %40
  %51 = shl nuw nsw i32 %29, 1
  %52 = getelementptr inbounds nuw i8, ptr %1, i64 8
  %53 = load ptr, ptr %52, align 8, !tbaa !30
  %.not9.i10.i.i = icmp eq ptr %53, null
  %54 = zext nneg i32 %51 to i64
  %55 = shl nuw nsw i64 %54, 3
  br i1 %.not9.i10.i.i, label %58, label %56

56:                                               ; preds = %50
  %57 = tail call ptr @realloc(ptr noundef nonnull %53, i64 noundef %55) #9
  br label %60

58:                                               ; preds = %50
  %59 = tail call noalias ptr @malloc(i64 noundef %55) #8
  br label %60

60:                                               ; preds = %58, %56
  %61 = phi ptr [ %57, %56 ], [ %59, %58 ]
  store ptr %61, ptr %52, align 8, !tbaa !30
  store i32 %51, ptr %1, align 8, !tbaa !38
  br label %Vec_PtrPush.exit.i

Vec_PtrPush.exit.i:                               ; preds = %60, %Vec_PtrGrow.exit.i.i, %.Vec_PtrGrow.exit11_crit_edge.i.i
  %62 = phi ptr [ %.pre.i.i, %.Vec_PtrGrow.exit11_crit_edge.i.i ], [ %61, %60 ], [ %49, %Vec_PtrGrow.exit.i.i ]
  %63 = load i32, ptr %28, align 4, !tbaa !28
  %64 = add nsw i32 %63, 1
  store i32 %64, ptr %28, align 4, !tbaa !28
  %65 = sext i32 %63 to i64
  %66 = getelementptr inbounds ptr, ptr %62, i64 %65
  store ptr %.tr.lcssa, ptr %66, align 8, !tbaa !31
  br label %Vec_PtrPushUnique.exit

Vec_PtrPushUnique.exit:                           ; preds = %34, %Vec_PtrPush.exit.i
  ret void
}